target datalayout = "e-m:e-p270:32:32-p271:32:32-p272:64:64-i64:64-i128:128-f80:128-n8:16:32:64-S128"
target triple = "x86_64-pc-linux-gnu"

; Function Attrs: mustprogress uwtable
define i64 @zmq_timers_timeout(ptr noundef %0) #1 {
  %2 = alloca i64, align 8
  %3 = alloca ptr, align 8
  store ptr %0, ptr %3, align 8, !tbaa !12
  %4 = load ptr, ptr %3, align 8, !tbaa !12
  %5 = icmp ne ptr %4, null
  br i1 %5, label %6, label %9

6:                                                ; preds = %1
  %7 = load ptr, ptr %3, align 8, !tbaa !12
  %8 = call noundef zeroext i1 @_ZNK3zmq8timers_t9check_tagEv(ptr noundef nonnull align 8 dereferenceable(120) %7)
  br i1 %8, label %11, label %9

9:                                                ; preds = %6, %1
  %10 = call ptr @__errno_location() #19
  store i32 14, ptr %10, align 4, !tbaa !8
  store i64 -1, ptr %2, align 8
  br label %14

11:                                               ; preds = %6
  %12 = load ptr, ptr %3, align 8, !tbaa !12
  %13 = call noundef i64 @_ZN3zmq8timers_t7timeoutEv(ptr noundef nonnull align 8 dereferenceable(120) %12)
  store i64 %13, ptr %2, align 8
  br label %14

14:                                               ; preds = %11, %9
  %15 = load i64, ptr %2, align 8
  ret i64 %15
}